target datalayout = "e-m:e-p270:32:32-p271:32:32-p272:64:64-i64:64-i128:128-f80:128-n8:16:32:64-S128"
target triple = "x86_64-pc-linux-gnu"

%struct.MpegEncContext = type { ptr, i32, i32, i32, [12 x i32], i32, %struct.ScanTable, %struct.ScanTable, [64 x i8], [64 x i8], ptr, ptr, i32, i32, i32, i32, i32, i32, i32, i32, i32, i32, i32, i32, i32, i32, i32, i32, i32, i32, i32, i32, i64, i64, ptr, %struct.BufferPoolContext, i32, i32, %union.anon, i32, %struct.MPVWorkPicture, %struct.MPVWorkPicture, %struct.MPVWorkPicture, i32, [3 x i32], ptr, [3 x ptr], ptr, ptr, ptr, ptr, ptr, ptr, [3 x ptr], i32, ptr, ptr, ptr, ptr, %struct.ScratchpadContext, i32, i32, i32, i32, i32, i32, %struct.BlockDSPContext, %struct.H264ChromaContext, %struct.HpelDSPContext, %struct.IDCTDSPContext, %struct.QpelDSPContext, %struct.VideoDSPContext, %struct.H263DSPContext, ptr, [2 x [2 x ptr]], i32, i32, [2 x [4 x [2 x i32]]], [2 x [2 x i32]], [2 x [2 x [2 x i32]]], [2 x [64 x i16]], i32, i32, i32, i32, i32, [6 x i32], [6 x i32], [3 x ptr], ptr, [64 x i16], [64 x i16], [64 x i16], [64 x i16], i32, i32, %struct.GetBitContext, i32, i32, i32, i32, i32, i32, i32, i32, i32, i32, i32, i32, i32, i32, i32, i64, i64, i16, i16, i16, i16, i32, i32, i32, i32, i32, i32, i32, i32, i32, [3 x i32], i32, i32, i32, i32, i32, i32, %struct.GetBitContext, i32, [2 x [2 x i32]], i32, i32, i32, i32, i32, i32, i32, i32, i32, i32, i32, i32, i32, i32, [2 x i32], i32, i32, ptr, ptr, ptr, ptr, ptr, i32, i32, %struct.ERContext }
%struct.ScanTable = type { ptr, [64 x i8], [64 x i8] }
%struct.BufferPoolContext = type { ptr, ptr, ptr, ptr, ptr, i32, i32, i32 }
%union.anon = type { [32 x ptr] }
%struct.MPVWorkPicture = type { [3 x ptr], [3 x i64], ptr, ptr, [2 x ptr], ptr, ptr, [2 x ptr], i32 }
%struct.ScratchpadContext = type { ptr, ptr, %union.anon.0, i32 }
%union.anon.0 = type { ptr }
%struct.BlockDSPContext = type { ptr, ptr, [2 x ptr] }
%struct.H264ChromaContext = type { [4 x ptr], [4 x ptr] }
%struct.HpelDSPContext = type { [4 x [4 x ptr]], [4 x [4 x ptr]], [4 x [4 x ptr]], [4 x ptr] }
%struct.IDCTDSPContext = type { ptr, ptr, ptr, ptr, ptr, ptr, [64 x i8], i32, i32 }
%struct.QpelDSPContext = type { [2 x [16 x ptr]], [2 x [16 x ptr]], [2 x [16 x ptr]] }
%struct.VideoDSPContext = type { ptr, ptr }
%struct.H263DSPContext = type { ptr, ptr }
%struct.GetBitContext = type { ptr, ptr, i32, i32, i32 }
%struct.ERContext = type { ptr, ptr, i32, ptr, i32, i32, i32, i64, i64, i32, i32, ptr, ptr, [3 x ptr], ptr, ptr, [2 x [4 x [2 x i32]]], %struct.ERPicture, %struct.ERPicture, %struct.ERPicture, [2 x ptr], [2 x ptr], i16, i16, i32, i32, ptr, ptr }
%struct.ERPicture = type { ptr, ptr, ptr, [2 x ptr], [2 x ptr], ptr, i32 }
%struct.WMV2Context = type { %struct.WMV2DSPContext, i32 }
%struct.WMV2DSPContext = type { ptr, ptr, [8 x ptr], i32 }

@ff_wmv1_scantable = external hidden constant [4 x [64 x i8]], align 16

; Function Attrs: cold nounwind optsize uwtable
define void @ff_wmv2_common_init(ptr noundef %0) #0 {
  %2 = alloca ptr, align 8
  %3 = alloca ptr, align 8
  store ptr %0, ptr %2, align 8, !tbaa !4
  call void @llvm.lifetime.start.p0(i64 8, ptr %3) #5
  %4 = load ptr, ptr %2, align 8, !tbaa !4
  %5 = getelementptr inbounds nuw %struct.MpegEncContext, ptr %4, i32 0, i32 11
  %6 = load ptr, ptr %5, align 8, !tbaa !9
  store ptr %6, ptr %3, align 8, !tbaa !38
  %7 = load ptr, ptr %2, align 8, !tbaa !4
  %8 = getelementptr inbounds nuw %struct.MpegEncContext, ptr %7, i32 0, i32 66
  call void @ff_blockdsp_init(ptr noundef %8)
  %9 = load ptr, ptr %3, align 8, !tbaa !38
  %10 = getelementptr inbounds nuw %struct.WMV2Context, ptr %9, i32 0, i32 0
  call void @ff_wmv2dsp_init(ptr noundef %10)
  %11 = load ptr, ptr %3, align 8, !tbaa !38
  %12 = getelementptr inbounds nuw %struct.WMV2Context, ptr %11, i32 0, i32 0
  %13 = getelementptr inbounds nuw %struct.WMV2DSPContext, ptr %12, i32 0, i32 3
  %14 = load i32, ptr %13, align 8, !tbaa !40
  %15 = load ptr, ptr %2, align 8, !tbaa !4
  %16 = getelementptr inbounds nuw %struct.MpegEncContext, ptr %15, i32 0, i32 69
  %17 = getelementptr inbounds nuw %struct.IDCTDSPContext, ptr %16, i32 0, i32 7
  store i32 %14, ptr %17, align 8, !tbaa !43
  %18 = load ptr, ptr %2, align 8, !tbaa !4
  %19 = getelementptr inbounds nuw %struct.MpegEncContext, ptr %18, i32 0, i32 69
  %20 = getelementptr inbounds nuw %struct.IDCTDSPContext, ptr %19, i32 0, i32 6
  %21 = getelementptr inbounds [64 x i8], ptr %20, i64 0, i64 0
  %22 = load ptr, ptr %3, align 8, !tbaa !38
  %23 = getelementptr inbounds nuw %struct.WMV2Context, ptr %22, i32 0, i32 0
  %24 = getelementptr inbounds nuw %struct.WMV2DSPContext, ptr %23, i32 0, i32 3
  %25 = load i32, ptr %24, align 8, !tbaa !40
  call void @ff_init_scantable_permutation(ptr noundef %21, i32 noundef %25)
  %26 = load ptr, ptr %2, align 8, !tbaa !4
  %27 = getelementptr inbounds nuw %struct.MpegEncContext, ptr %26, i32 0, i32 69
  %28 = getelementptr inbounds nuw %struct.IDCTDSPContext, ptr %27, i32 0, i32 6
  %29 = getelementptr inbounds [64 x i8], ptr %28, i64 0, i64 0
  %30 = load ptr, ptr %2, align 8, !tbaa !4
  %31 = getelementptr inbounds nuw %struct.MpegEncContext, ptr %30, i32 0, i32 7
  call void @ff_init_scantable(ptr noundef %29, ptr noundef %31, ptr noundef getelementptr inbounds ([4 x [64 x i8]], ptr @ff_wmv1_scantable, i64 0, i64 1))
  %32 = load ptr, ptr %2, align 8, !tbaa !4
  %33 = getelementptr inbounds nuw %struct.MpegEncContext, ptr %32, i32 0, i32 69
  %34 = getelementptr inbounds nuw %struct.IDCTDSPContext, ptr %33, i32 0, i32 6
  %35 = getelementptr inbounds [64 x i8], ptr %34, i64 0, i64 0
  %36 = load ptr, ptr %2, align 8, !tbaa !4
  %37 = getelementptr inbounds nuw %struct.MpegEncContext, ptr %36, i32 0, i32 6
  call void @ff_init_scantable(ptr noundef %35, ptr noundef %37, ptr noundef @ff_wmv1_scantable)
  %38 = load ptr, ptr %2, align 8, !tbaa !4
  %39 = getelementptr inbounds nuw %struct.MpegEncContext, ptr %38, i32 0, i32 8
  %40 = getelementptr inbounds [64 x i8], ptr %39, i64 0, i64 0
  %41 = load ptr, ptr %2, align 8, !tbaa !4
  %42 = getelementptr inbounds nuw %struct.MpegEncContext, ptr %41, i32 0, i32 69
  %43 = getelementptr inbounds nuw %struct.IDCTDSPContext, ptr %42, i32 0, i32 6
  %44 = getelementptr inbounds [64 x i8], ptr %43, i64 0, i64 0
  call void @ff_permute_scantable(ptr noundef %40, ptr noundef getelementptr inbounds ([4 x [64 x i8]], ptr @ff_wmv1_scantable, i64 0, i64 2), ptr noundef %44)
  %45 = load ptr, ptr %2, align 8, !tbaa !4
  %46 = getelementptr inbounds nuw %struct.MpegEncContext, ptr %45, i32 0, i32 9
  %47 = getelementptr inbounds [64 x i8], ptr %46, i64 0, i64 0
  %48 = load ptr, ptr %2, align 8, !tbaa !4
  %49 = getelementptr inbounds nuw %struct.MpegEncContext, ptr %48, i32 0, i32 69
  %50 = getelementptr inbounds nuw %struct.IDCTDSPContext, ptr %49, i32 0, i32 6
  %51 = getelementptr inbounds [64 x i8], ptr %50, i64 0, i64 0
  call void @ff_permute_scantable(ptr noundef %47, ptr noundef getelementptr inbounds ([4 x [64 x i8]], ptr @ff_wmv1_scantable, i64 0, i64 3), ptr noundef %51)
  %52 = load ptr, ptr %3, align 8, !tbaa !38
  %53 = getelementptr inbounds nuw %struct.WMV2Context, ptr %52, i32 0, i32 0
  %54 = getelementptr inbounds nuw %struct.WMV2DSPContext, ptr %53, i32 0, i32 1
  %55 = load ptr, ptr %54, align 8, !tbaa !44
  %56 = load ptr, ptr %2, align 8, !tbaa !4
  %57 = getelementptr inbounds nuw %struct.MpegEncContext, ptr %56, i32 0, i32 69
  %58 = getelementptr inbounds nuw %struct.IDCTDSPContext, ptr %57, i32 0, i32 4
  store ptr %55, ptr %58, align 8, !tbaa !45
  %59 = load ptr, ptr %3, align 8, !tbaa !38
  %60 = getelementptr inbounds nuw %struct.WMV2Context, ptr %59, i32 0, i32 0
  %61 = getelementptr inbounds nuw %struct.WMV2DSPContext, ptr %60, i32 0, i32 0
  %62 = load ptr, ptr %61, align 8, !tbaa !46
  %63 = load ptr, ptr %2, align 8, !tbaa !4
  %64 = getelementptr inbounds nuw %struct.MpegEncContext, ptr %63, i32 0, i32 69
  %65 = getelementptr inbounds nuw %struct.IDCTDSPContext, ptr %64, i32 0, i32 5
  store ptr %62, ptr %65, align 8, !tbaa !47
  %66 = load ptr, ptr %2, align 8, !tbaa !4
  %67 = getelementptr inbounds nuw %struct.MpegEncContext, ptr %66, i32 0, i32 69
  %68 = getelementptr inbounds nuw %struct.IDCTDSPContext, ptr %67, i32 0, i32 3
  store ptr null, ptr %68, align 8, !tbaa !48
  call void @llvm.lifetime.end.p0(i64 8, ptr %3) #5
  ret void
}