; Function Attrs: cold nounwind optsize uwtable
define void @ff_wmv2_common_init(ptr noundef %0) local_unnamed_addr #0 {
  %2 = getelementptr inbounds nuw i8, ptr %0, i64 480
  %3 = load ptr, ptr %2, align 8, !tbaa !4
  %4 = getelementptr inbounds nuw i8, ptr %0, i64 1496
  tail call void @ff_blockdsp_init(ptr noundef nonnull %4) #4
  tail call void @ff_wmv2dsp_init(ptr noundef %3) #4
  %5 = getelementptr inbounds nuw i8, ptr %3, i64 80
  %6 = load i32, ptr %5, align 8, !tbaa !36
  %7 = getelementptr inbounds nuw i8, ptr %0, i64 2120
  store i32 %6, ptr %7, align 8, !tbaa !39
  %8 = getelementptr inbounds nuw i8, ptr %0, i64 2056
  tail call void @ff_init_scantable_permutation(ptr noundef nonnull %8, i32 noundef %6) #4
  %9 = getelementptr inbounds nuw i8, ptr %0, i64 208
  tail call void @ff_init_scantable(ptr noundef nonnull %8, ptr noundef nonnull %9, ptr noundef nonnull getelementptr inbounds nuw (i8, ptr @ff_wmv1_scantable, i64 64)) #4
  %10 = getelementptr inbounds nuw i8, ptr %0, i64 72
  tail call void @ff_init_scantable(ptr noundef nonnull %8, ptr noundef nonnull %10, ptr noundef nonnull @ff_wmv1_scantable) #4
  %11 = getelementptr inbounds nuw i8, ptr %0, i64 344
  tail call void @ff_permute_scantable(ptr noundef nonnull %11, ptr noundef nonnull getelementptr inbounds nuw (i8, ptr @ff_wmv1_scantable, i64 128), ptr noundef nonnull %8) #4
  %12 = getelementptr inbounds nuw i8, ptr %0, i64 408
  tail call void @ff_permute_scantable(ptr noundef nonnull %12, ptr noundef nonnull getelementptr inbounds nuw (i8, ptr @ff_wmv1_scantable, i64 192), ptr noundef nonnull %8) #4
  %13 = getelementptr inbounds nuw i8, ptr %3, i64 8
  %14 = load ptr, ptr %13, align 8, !tbaa !40
  %15 = getelementptr inbounds nuw i8, ptr %0, i64 2040
  store ptr %14, ptr %15, align 8, !tbaa !41
  %16 = load ptr, ptr %3, align 8, !tbaa !42
  %17 = getelementptr inbounds nuw i8, ptr %0, i64 2048
  store ptr %16, ptr %17, align 8, !tbaa !43
  %18 = getelementptr inbounds nuw i8, ptr %0, i64 2032
  store ptr null, ptr %18, align 8, !tbaa !44
  ret void
}